target datalayout = "e-m:e-p270:32:32-p271:32:32-p272:64:64-i64:64-i128:128-f80:128-n8:16:32:64-S128"
target triple = "x86_64-pc-linux-gnu"

%struct.settings = type { i64, i32, i32, i32, ptr, i32, i32, i32, ptr, ptr, i32, double, i32, i32, i32, i8, i32, i32, i8, i32, i32, i32, i32, i32, i32, i8, i8, i8, i8, i8, i8, i8, i32, i32, double, double, i32, i32, i8, i32, i8, i8, ptr, i32, i32, i32, i32, double, double, i32, i8, i32, i32, i32, i32, i32, i8, i8, i8, ptr, i32, i32, i32, i32, i32, i32, i32, i32, i32, i32, double, i8, i32, i32, ptr, i32 }
%struct.storage_settings = type { ptr, %struct.extstore_conf }
%struct.extstore_conf = type { i32, i32, i32, i32, i32, i32, i32, i32 }

@settings = external global %struct.settings, align 8
@stderr = external global ptr, align 8
@.str.90 = private unnamed_addr constant [64 x i8] c"-I (item_size_max: %d) cannot be larger than ext_wbuf_size: %d\0A\00", align 1
@.str.91 = private unnamed_addr constant [56 x i8] c"Cannot use UDP with extstore enabled (-U 0 to disable)\0A\00", align 1

; Function Attrs: nounwind uwtable
define dso_local i32 @storage_check_config(ptr noundef %0) #0 {
  %2 = alloca i32, align 4
  %3 = alloca ptr, align 8
  %4 = alloca ptr, align 8
  %5 = alloca ptr, align 8
  %6 = alloca i32, align 4
  store ptr %0, ptr %3, align 8, !tbaa !4
  call void @llvm.lifetime.start.p0(i64 8, ptr %4) #13
  %7 = load ptr, ptr %3, align 8, !tbaa !4
  store ptr %7, ptr %4, align 8, !tbaa !199
  call void @llvm.lifetime.start.p0(i64 8, ptr %5) #13
  %8 = load ptr, ptr %4, align 8, !tbaa !199
  %9 = getelementptr inbounds nuw %struct.storage_settings, ptr %8, i32 0, i32 1
  store ptr %9, ptr %5, align 8, !tbaa !220
  %10 = load ptr, ptr %4, align 8, !tbaa !199
  %11 = getelementptr inbounds nuw %struct.storage_settings, ptr %10, i32 0, i32 0
  %12 = load ptr, ptr %11, align 8, !tbaa !222
  %13 = icmp ne ptr %12, null
  br i1 %13, label %14, label %34

14:                                               ; preds = %1
  %15 = load i32, ptr getelementptr inbounds nuw (%struct.settings, ptr @settings, i32 0, i32 21), align 4, !tbaa !226
  %16 = load ptr, ptr %5, align 8, !tbaa !220
  %17 = getelementptr inbounds nuw %struct.extstore_conf, ptr %16, i32 0, i32 4
  %18 = load i32, ptr %17, align 4, !tbaa !224
  %19 = icmp ugt i32 %15, %18
  br i1 %19, label %20, label %27

20:                                               ; preds = %14
  %21 = load ptr, ptr @stderr, align 8, !tbaa !159
  %22 = load i32, ptr getelementptr inbounds nuw (%struct.settings, ptr @settings, i32 0, i32 21), align 4, !tbaa !226
  %23 = load ptr, ptr %5, align 8, !tbaa !220
  %24 = getelementptr inbounds nuw %struct.extstore_conf, ptr %23, i32 0, i32 4
  %25 = load i32, ptr %24, align 4, !tbaa !224
  %26 = call i32 (ptr, ptr, ...) @fprintf(ptr noundef %21, ptr noundef @.str.90, i32 noundef %22, i32 noundef %25) #13
  store i32 1, ptr %2, align 4
  store i32 1, ptr %6, align 4
  br label %35

27:                                               ; preds = %14
  %28 = load i32, ptr getelementptr inbounds nuw (%struct.settings, ptr @settings, i32 0, i32 3), align 8, !tbaa !227
  %29 = icmp ne i32 %28, 0
  br i1 %29, label %30, label %33

30:                                               ; preds = %27
  %31 = load ptr, ptr @stderr, align 8, !tbaa !159
  %32 = call i32 (ptr, ptr, ...) @fprintf(ptr noundef %31, ptr noundef @.str.91) #13
  store i32 1, ptr %2, align 4
  store i32 1, ptr %6, align 4
  br label %35

33:                                               ; preds = %27
  store i32 0, ptr %2, align 4
  store i32 1, ptr %6, align 4
  br label %35

34:                                               ; preds = %1
  store i32 2, ptr %2, align 4
  store i32 1, ptr %6, align 4
  br label %35

35:                                               ; preds = %34, %33, %30, %20
  call void @llvm.lifetime.end.p0(i64 8, ptr %5) #13
  call void @llvm.lifetime.end.p0(i64 8, ptr %4) #13
  %36 = load i32, ptr %2, align 4
  ret i32 %36
}