; Function Attrs: nofree nounwind uwtable
define dso_local range(i32 0, 3) i32 @storage_check_config(ptr noundef readonly captures(none) %0) local_unnamed_addr #16 {
  %2 = load ptr, ptr %0, align 8, !tbaa !230
  %.not = icmp eq ptr %2, null
  br i1 %.not, label %16, label %3

3:                                                ; preds = %1
  %4 = load i32, ptr getelementptr inbounds nuw (i8, ptr @settings, i64 116), align 4, !tbaa !234
  %5 = getelementptr inbounds nuw i8, ptr %0, i64 24
  %6 = load i32, ptr %5, align 4, !tbaa !232
  %7 = icmp ugt i32 %4, %6
  br i1 %7, label %8, label %11

8:                                                ; preds = %3
  %9 = load ptr, ptr @stderr, align 8, !tbaa !156
  %10 = tail call i32 (ptr, ptr, ...) @fprintf(ptr noundef %9, ptr noundef nonnull @.str.90, i32 noundef %4, i32 noundef %6) #24
  br label %16

11:                                               ; preds = %3
  %12 = load i32, ptr getelementptr inbounds nuw (i8, ptr @settings, i64 16), align 8, !tbaa !235
  %.not7 = icmp eq i32 %12, 0
  br i1 %.not7, label %16, label %13

13:                                               ; preds = %11
  %14 = load ptr, ptr @stderr, align 8, !tbaa !156
  %15 = tail call i64 @fwrite(ptr nonnull @.str.91, i64 55, i64 1, ptr %14) #25
  br label %16

16:                                               ; preds = %1, %11, %13, %8
  %.0 = phi i32 [ 1, %8 ], [ 1, %13 ], [ 0, %11 ], [ 2, %1 ]
  ret i32 %.0
}